	.file	"proce2.c"
	.text
	.globl	swap_add
	.type	swap_add, @function
swap_add:
.LFB0:
	.cfi_startproc
	pushq	%rbp
	.cfi_def_cfa_offset 16
	.cfi_offset 6, -16
	movq	%rsp, %rbp
	.cfi_def_cfa_register 6
	movq	%rdi, -24(%rbp)
	movq	%rsi, -32(%rbp)
	movq	-24(%rbp), %rax
	movl	(%rax), %eax
	movl	%eax, -8(%rbp)
	movq	-32(%rbp), %rax
	movl	(%rax), %eax
	movl	%eax, -4(%rbp)
	movq	-24(%rbp), %rax
	movl	-4(%rbp), %edx
	movl	%edx, (%rax)
	movq	-32(%rbp), %rax
	movl	-8(%rbp), %edx
	movl	%edx, (%rax)
	movl	-4(%rbp), %eax
	movl	-8(%rbp), %edx
	addl	%edx, %eax
	popq	%rbp
	.cfi_def_cfa 7, 8
	ret
	.cfi_endproc
.LFE0:
	.size	swap_add, .-swap_add
	.globl	caller
	.type	caller, @function
caller:
.LFB1:
	.cfi_startproc
	pushq	%rbp
	.cfi_def_cfa_offset 16
	.cfi_offset 6, -16
	movq	%rsp, %rbp
	.cfi_def_cfa_register 6
	subq	$16, %rsp
	movl	$222, -16(%rbp)
	movl	$333, -12(%rbp)
	leaq	-12(%rbp), %rdx
	leaq	-16(%rbp), %rax
	movq	%rdx, %rsi
	movq	%rax, %rdi
	call	swap_add
	movl	%eax, -8(%rbp)
	movl	-16(%rbp), %edx
	movl	-12(%rbp), %eax
	movl	%edx, %ecx
	subl	%eax, %ecx
	movl	%ecx, %eax
	movl	%eax, -4(%rbp)
	movl	-8(%rbp), %eax
	imull	-4(%rbp), %eax
	leave
	.cfi_def_cfa 7, 8
	ret
	.cfi_endproc
.LFE1:
	.size	caller, .-caller
	.ident	"GCC: (Ubuntu/Linaro 4.6.3-1ubuntu5) 4.6.3"
	.section	.note.GNU-stack,"",@progbits
